; Function Attrs: mustprogress uwtable
define void @_ZN32MLRenderingPointsParametersFrame21allTopLevelGuiActionsER5QListIP7QActionE(ptr nocapture noundef nonnull readonly align 8 dereferenceable(112) %0, ptr noundef nonnull align 8 dereferenceable(8) %1) unnamed_addr #3 align 2 personality ptr @__gxx_personality_v0 {
  %3 = alloca %class.QList.4, align 8
  %4 = alloca %class.QList.4, align 8
  %5 = alloca %class.QList.4, align 8
  %6 = alloca %class.QList.4, align 8
  %7 = getelementptr inbounds i8, ptr %0, i64 64
  %8 = load ptr, ptr %7, align 8
  call void @_ZN18MLRenderingToolbar18getTopLevelActionsEv(ptr dead_on_unwind nonnull writable sret(%class.QList.4) align 8 %3, ptr noundef nonnull align 8 dereferenceable(96) %8)
  %9 = invoke noundef nonnull align 8 dereferenceable(8) ptr @_ZN5QListIP7QActionEpLERKS2_(ptr noundef nonnull align 8 dereferenceable(8) %1, ptr noundef nonnull align 8 dereferenceable(8) %3)
          to label %_ZN5QListIP7QActionE6appendERKS2_.exit unwind label %47

_ZN5QListIP7QActionE6appendERKS2_.exit:           ; preds = %2
  %10 = load ptr, ptr %3, align 8
  %11 = load atomic i32, ptr %10 monotonic, align 4
  switch i32 %11, label %_ZN9QtPrivate8RefCount5derefEv.exit.i [
    i32 0, label %_ZN9QtPrivate8RefCount5derefEv.exit.thread2.i
    i32 -1, label %_ZN5QListIP7QActionED2Ev.exit
  ]

_ZN9QtPrivate8RefCount5derefEv.exit.i:            ; preds = %_ZN5QListIP7QActionE6appendERKS2_.exit
  %12 = atomicrmw sub ptr %10, i32 1 seq_cst, align 4
  %.not.i = icmp eq i32 %12, 1
  br i1 %.not.i, label %_ZN9QtPrivate8RefCount5derefEv.exit._ZN9QtPrivate8RefCount5derefEv.exit.thread2_crit_edge.i, label %_ZN5QListIP7QActionED2Ev.exit

_ZN9QtPrivate8RefCount5derefEv.exit._ZN9QtPrivate8RefCount5derefEv.exit.thread2_crit_edge.i: ; preds = %_ZN9QtPrivate8RefCount5derefEv.exit.i
  %.pre.i = load ptr, ptr %3, align 8
  br label %_ZN9QtPrivate8RefCount5derefEv.exit.thread2.i

_ZN9QtPrivate8RefCount5derefEv.exit.thread2.i:    ; preds = %_ZN9QtPrivate8RefCount5derefEv.exit._ZN9QtPrivate8RefCount5derefEv.exit.thread2_crit_edge.i, %_ZN5QListIP7QActionE6appendERKS2_.exit
  %13 = phi ptr [ %.pre.i, %_ZN9QtPrivate8RefCount5derefEv.exit._ZN9QtPrivate8RefCount5derefEv.exit.thread2_crit_edge.i ], [ %10, %_ZN5QListIP7QActionE6appendERKS2_.exit ]
  invoke void @_ZN9QListData7disposeEPNS_4DataE(ptr noundef %13)
          to label %_ZN5QListIP7QActionED2Ev.exit unwind label %14

14:                                               ; preds = %_ZN9QtPrivate8RefCount5derefEv.exit.thread2.i
  %15 = landingpad { ptr, i32 }
          catch ptr null
  %16 = extractvalue { ptr, i32 } %15, 0
  call void @__clang_call_terminate(ptr %16) #25
  unreachable

_ZN5QListIP7QActionED2Ev.exit:                    ; preds = %_ZN5QListIP7QActionE6appendERKS2_.exit, %_ZN9QtPrivate8RefCount5derefEv.exit.i, %_ZN9QtPrivate8RefCount5derefEv.exit.thread2.i
  %17 = getelementptr inbounds i8, ptr %0, i64 80
  %18 = load ptr, ptr %17, align 8
  call void @_ZN18MLRenderingToolbar18getTopLevelActionsEv(ptr dead_on_unwind nonnull writable sret(%class.QList.4) align 8 %4, ptr noundef nonnull align 8 dereferenceable(96) %18)
  %19 = invoke noundef nonnull align 8 dereferenceable(8) ptr @_ZN5QListIP7QActionEpLERKS2_(ptr noundef nonnull align 8 dereferenceable(8) %1, ptr noundef nonnull align 8 dereferenceable(8) %4)
          to label %_ZN5QListIP7QActionE6appendERKS2_.exit8 unwind label %49

_ZN5QListIP7QActionE6appendERKS2_.exit8:          ; preds = %_ZN5QListIP7QActionED2Ev.exit
  %20 = load ptr, ptr %4, align 8
  %21 = load atomic i32, ptr %20 monotonic, align 4
  switch i32 %21, label %_ZN9QtPrivate8RefCount5derefEv.exit.i10 [
    i32 0, label %_ZN9QtPrivate8RefCount5derefEv.exit.thread2.i9
    i32 -1, label %_ZN5QListIP7QActionED2Ev.exit14
  ]

_ZN9QtPrivate8RefCount5derefEv.exit.i10:          ; preds = %_ZN5QListIP7QActionE6appendERKS2_.exit8
  %22 = atomicrmw sub ptr %20, i32 1 seq_cst, align 4
  %.not.i11 = icmp eq i32 %22, 1
  br i1 %.not.i11, label %_ZN9QtPrivate8RefCount5derefEv.exit._ZN9QtPrivate8RefCount5derefEv.exit.thread2_crit_edge.i12, label %_ZN5QListIP7QActionED2Ev.exit14

_ZN9QtPrivate8RefCount5derefEv.exit._ZN9QtPrivate8RefCount5derefEv.exit.thread2_crit_edge.i12: ; preds = %_ZN9QtPrivate8RefCount5derefEv.exit.i10
  %.pre.i13 = load ptr, ptr %4, align 8
  br label %_ZN9QtPrivate8RefCount5derefEv.exit.thread2.i9

_ZN9QtPrivate8RefCount5derefEv.exit.thread2.i9:   ; preds = %_ZN9QtPrivate8RefCount5derefEv.exit._ZN9QtPrivate8RefCount5derefEv.exit.thread2_crit_edge.i12, %_ZN5QListIP7QActionE6appendERKS2_.exit8
  %23 = phi ptr [ %.pre.i13, %_ZN9QtPrivate8RefCount5derefEv.exit._ZN9QtPrivate8RefCount5derefEv.exit.thread2_crit_edge.i12 ], [ %20, %_ZN5QListIP7QActionE6appendERKS2_.exit8 ]
  invoke void @_ZN9QListData7disposeEPNS_4DataE(ptr noundef %23)
          to label %_ZN5QListIP7QActionED2Ev.exit14 unwind label %24

24:                                               ; preds = %_ZN9QtPrivate8RefCount5derefEv.exit.thread2.i9
  %25 = landingpad { ptr, i32 }
          catch ptr null
  %26 = extractvalue { ptr, i32 } %25, 0
  call void @__clang_call_terminate(ptr %26) #25
  unreachable

_ZN5QListIP7QActionED2Ev.exit14:                  ; preds = %_ZN5QListIP7QActionE6appendERKS2_.exit8, %_ZN9QtPrivate8RefCount5derefEv.exit.i10, %_ZN9QtPrivate8RefCount5derefEv.exit.thread2.i9
  %27 = getelementptr inbounds i8, ptr %0, i64 96
  %28 = load ptr, ptr %27, align 8
  call void @_ZNK7QWidget7actionsEv(ptr dead_on_unwind nonnull writable sret(%class.QList.4) align 8 %5, ptr noundef nonnull align 8 dereferenceable(48) %28)
  %29 = invoke noundef nonnull align 8 dereferenceable(8) ptr @_ZN5QListIP7QActionEpLERKS2_(ptr noundef nonnull align 8 dereferenceable(8) %1, ptr noundef nonnull align 8 dereferenceable(8) %5)
          to label %_ZN5QListIP7QActionE6appendERKS2_.exit15 unwind label %51

_ZN5QListIP7QActionE6appendERKS2_.exit15:         ; preds = %_ZN5QListIP7QActionED2Ev.exit14
  %30 = load ptr, ptr %5, align 8
  %31 = load atomic i32, ptr %30 monotonic, align 4
  switch i32 %31, label %_ZN9QtPrivate8RefCount5derefEv.exit.i17 [
    i32 0, label %_ZN9QtPrivate8RefCount5derefEv.exit.thread2.i16
    i32 -1, label %_ZN5QListIP7QActionED2Ev.exit21
  ]

_ZN9QtPrivate8RefCount5derefEv.exit.i17:          ; preds = %_ZN5QListIP7QActionE6appendERKS2_.exit15
  %32 = atomicrmw sub ptr %30, i32 1 seq_cst, align 4
  %.not.i18 = icmp eq i32 %32, 1
  br i1 %.not.i18, label %_ZN9QtPrivate8RefCount5derefEv.exit._ZN9QtPrivate8RefCount5derefEv.exit.thread2_crit_edge.i19, label %_ZN5QListIP7QActionED2Ev.exit21

_ZN9QtPrivate8RefCount5derefEv.exit._ZN9QtPrivate8RefCount5derefEv.exit.thread2_crit_edge.i19: ; preds = %_ZN9QtPrivate8RefCount5derefEv.exit.i17
  %.pre.i20 = load ptr, ptr %5, align 8
  br label %_ZN9QtPrivate8RefCount5derefEv.exit.thread2.i16

_ZN9QtPrivate8RefCount5derefEv.exit.thread2.i16:  ; preds = %_ZN9QtPrivate8RefCount5derefEv.exit._ZN9QtPrivate8RefCount5derefEv.exit.thread2_crit_edge.i19, %_ZN5QListIP7QActionE6appendERKS2_.exit15
  %33 = phi ptr [ %.pre.i20, %_ZN9QtPrivate8RefCount5derefEv.exit._ZN9QtPrivate8RefCount5derefEv.exit.thread2_crit_edge.i19 ], [ %30, %_ZN5QListIP7QActionE6appendERKS2_.exit15 ]
  invoke void @_ZN9QListData7disposeEPNS_4DataE(ptr noundef %33)
          to label %_ZN5QListIP7QActionED2Ev.exit21 unwind label %34

34:                                               ; preds = %_ZN9QtPrivate8RefCount5derefEv.exit.thread2.i16
  %35 = landingpad { ptr, i32 }
          catch ptr null
  %36 = extractvalue { ptr, i32 } %35, 0
  call void @__clang_call_terminate(ptr %36) #25
  unreachable

_ZN5QListIP7QActionED2Ev.exit21:                  ; preds = %_ZN5QListIP7QActionE6appendERKS2_.exit15, %_ZN9QtPrivate8RefCount5derefEv.exit.i17, %_ZN9QtPrivate8RefCount5derefEv.exit.thread2.i16
  %37 = getelementptr inbounds i8, ptr %0, i64 104
  %38 = load ptr, ptr %37, align 8
  call void @_ZNK7QWidget7actionsEv(ptr dead_on_unwind nonnull writable sret(%class.QList.4) align 8 %6, ptr noundef nonnull align 8 dereferenceable(48) %38)
  %39 = invoke noundef nonnull align 8 dereferenceable(8) ptr @_ZN5QListIP7QActionEpLERKS2_(ptr noundef nonnull align 8 dereferenceable(8) %1, ptr noundef nonnull align 8 dereferenceable(8) %6)
          to label %_ZN5QListIP7QActionE6appendERKS2_.exit22 unwind label %53

_ZN5QListIP7QActionE6appendERKS2_.exit22:         ; preds = %_ZN5QListIP7QActionED2Ev.exit21
  %40 = load ptr, ptr %6, align 8
  %41 = load atomic i32, ptr %40 monotonic, align 4
  switch i32 %41, label %_ZN9QtPrivate8RefCount5derefEv.exit.i24 [
    i32 0, label %_ZN9QtPrivate8RefCount5derefEv.exit.thread2.i23
    i32 -1, label %_ZN5QListIP7QActionED2Ev.exit28
  ]

_ZN9QtPrivate8RefCount5derefEv.exit.i24:          ; preds = %_ZN5QListIP7QActionE6appendERKS2_.exit22
  %42 = atomicrmw sub ptr %40, i32 1 seq_cst, align 4
  %.not.i25 = icmp eq i32 %42, 1
  br i1 %.not.i25, label %_ZN9QtPrivate8RefCount5derefEv.exit._ZN9QtPrivate8RefCount5derefEv.exit.thread2_crit_edge.i26, label %_ZN5QListIP7QActionED2Ev.exit28

_ZN9QtPrivate8RefCount5derefEv.exit._ZN9QtPrivate8RefCount5derefEv.exit.thread2_crit_edge.i26: ; preds = %_ZN9QtPrivate8RefCount5derefEv.exit.i24
  %.pre.i27 = load ptr, ptr %6, align 8
  br label %_ZN9QtPrivate8RefCount5derefEv.exit.thread2.i23

_ZN9QtPrivate8RefCount5derefEv.exit.thread2.i23:  ; preds = %_ZN9QtPrivate8RefCount5derefEv.exit._ZN9QtPrivate8RefCount5derefEv.exit.thread2_crit_edge.i26, %_ZN5QListIP7QActionE6appendERKS2_.exit22
  %43 = phi ptr [ %.pre.i27, %_ZN9QtPrivate8RefCount5derefEv.exit._ZN9QtPrivate8RefCount5derefEv.exit.thread2_crit_edge.i26 ], [ %40, %_ZN5QListIP7QActionE6appendERKS2_.exit22 ]
  invoke void @_ZN9QListData7disposeEPNS_4DataE(ptr noundef %43)
          to label %_ZN5QListIP7QActionED2Ev.exit28 unwind label %44

44:                                               ; preds = %_ZN9QtPrivate8RefCount5derefEv.exit.thread2.i23
  %45 = landingpad { ptr, i32 }
          catch ptr null
  %46 = extractvalue { ptr, i32 } %45, 0
  call void @__clang_call_terminate(ptr %46) #25
  unreachable

_ZN5QListIP7QActionED2Ev.exit28:                  ; preds = %_ZN5QListIP7QActionE6appendERKS2_.exit22, %_ZN9QtPrivate8RefCount5derefEv.exit.i24, %_ZN9QtPrivate8RefCount5derefEv.exit.thread2.i23
  ret void

47:                                               ; preds = %2
  %48 = landingpad { ptr, i32 }
          cleanup
  br label %55

49:                                               ; preds = %_ZN5QListIP7QActionED2Ev.exit
  %50 = landingpad { ptr, i32 }
          cleanup
  br label %55

51:                                               ; preds = %_ZN5QListIP7QActionED2Ev.exit14
  %52 = landingpad { ptr, i32 }
          cleanup
  br label %55

53:                                               ; preds = %_ZN5QListIP7QActionED2Ev.exit21
  %54 = landingpad { ptr, i32 }
          cleanup
  br label %55

55:                                               ; preds = %53, %51, %49, %47
  %.sink = phi ptr [ %6, %53 ], [ %5, %51 ], [ %4, %49 ], [ %3, %47 ]
  %.pn = phi { ptr, i32 } [ %54, %53 ], [ %52, %51 ], [ %50, %49 ], [ %48, %47 ]
  call void @_ZN5QListIP7QActionED2Ev(ptr noundef nonnull align 8 dereferenceable(8) %.sink) #23
  resume { ptr, i32 } %.pn
}